ARM GAS  /tmp/cct8K0iD.s 			page 1


   1              		.syntax unified
   2              		.cpu cortex-m0
   3              		.fpu softvfp
   4              		.eabi_attribute 20, 1	@ Tag_ABI_FP_denormal
   5              		.eabi_attribute 21, 1	@ Tag_ABI_FP_exceptions
   6              		.eabi_attribute 23, 3	@ Tag_ABI_FP_number_model
   7              		.eabi_attribute 24, 1	@ Tag_ABI_align8_needed
   8              		.eabi_attribute 25, 1	@ Tag_ABI_align8_preserved
   9              		.eabi_attribute 26, 1	@ Tag_ABI_enum_size
  10              		.eabi_attribute 30, 4	@ Tag_ABI_optimization_goals
  11              		.eabi_attribute 34, 0	@ Tag_CPU_unaligned_access
  12              		.eabi_attribute 18, 4	@ Tag_ABI_PCS_wchar_t
  13              		.file	"system_stm32f0xx.c"
  14              	@ GNU C11 (Fedora 5.2.0-4.fc24) version 5.2.0 (arm-none-eabi)
  15              	@	compiled by GNU C version 6.0.0 20160201 (Red Hat 6.0.0-0.9), GMP version 6.1.0, MPFR version 3.1
  16              	@ warning: GMP header version 6.1.0 differs from library version 6.1.1.
  17              	@ warning: MPFR header version 3.1.3 differs from library version 3.1.4.
  18              	@ GGC heuristics: --param ggc-min-expand=100 --param ggc-min-heapsize=131072
  19              	@ options passed:  -I .
  20              	@ -I ../../STM32Cube_FW_F0_V1.6.0/Drivers/CMSIS/Device/ST/STM32F0xx/Include
  21              	@ -I ../../STM32Cube_FW_F0_V1.6.0/Drivers/CMSIS/Include
  22              	@ -I ../../STM32Cube_FW_F0_V1.6.0/Drivers/STM32F0xx_HAL_Driver/Inc
  23              	@ -I ../../STM32F0-Discovery_FW_V1.0.0/Utilities/STM32F0-Discovery
  24              	@ -I ../../STM32Cube_FW_F0_V1.6.0/Drivers/BSP/STM32F072B-Discovery -I ./inc
  25              	@ -imultilib armv6-m -D__USES_INITFINI__ -D STM32F072xB
  26              	@ -D USE_STDPERIPH_DRIVER -D RUN_FROM_FLASH=1 src/system_stm32f0xx.c
  27              	@ -mcpu=cortex-m0 -mthumb -auxbase-strip src/system_stm32f0xx.o -g
  28              	@ -gdwarf-2 -Os -Wall -Wstrict-prototypes -fomit-frame-pointer
  29              	@ -fverbose-asm
  30              	@ options enabled:  -faggressive-loop-optimizations -falign-functions
  31              	@ -falign-jumps -falign-labels -falign-loops -fauto-inc-dec
  32              	@ -fbranch-count-reg -fcaller-saves -fchkp-check-incomplete-type
  33              	@ -fchkp-check-read -fchkp-check-write -fchkp-instrument-calls
  34              	@ -fchkp-narrow-bounds -fchkp-optimize -fchkp-store-bounds
  35              	@ -fchkp-use-static-bounds -fchkp-use-static-const-bounds
  36              	@ -fchkp-use-wrappers -fcombine-stack-adjustments -fcommon -fcompare-elim
  37              	@ -fcprop-registers -fcrossjumping -fcse-follow-jumps -fdefer-pop
  38              	@ -fdelete-null-pointer-checks -fdevirtualize -fdevirtualize-speculatively
  39              	@ -fdwarf2-cfi-asm -fearly-inlining -feliminate-unused-debug-types
  40              	@ -fexpensive-optimizations -fforward-propagate -ffunction-cse -fgcse
  41              	@ -fgcse-lm -fgnu-runtime -fgnu-unique -fguess-branch-probability
  42              	@ -fhoist-adjacent-loads -fident -fif-conversion -fif-conversion2
  43              	@ -findirect-inlining -finline -finline-atomics -finline-functions
  44              	@ -finline-functions-called-once -finline-small-functions -fipa-cp
  45              	@ -fipa-cp-alignment -fipa-icf -fipa-icf-functions -fipa-icf-variables
  46              	@ -fipa-profile -fipa-pure-const -fipa-reference -fipa-sra
  47              	@ -fira-hoist-pressure -fira-share-save-slots -fira-share-spill-slots
  48              	@ -fisolate-erroneous-paths-dereference -fivopts -fkeep-static-consts
  49              	@ -fleading-underscore -flifetime-dse -flra-remat -flto-odr-type-merging
  50              	@ -fmath-errno -fmerge-constants -fmerge-debug-strings
  51              	@ -fmove-loop-invariants -fomit-frame-pointer -foptimize-sibling-calls
  52              	@ -fpartial-inlining -fpeephole -fpeephole2 -fprefetch-loop-arrays
  53              	@ -freg-struct-return -freorder-blocks -freorder-functions
  54              	@ -frerun-cse-after-loop -fsched-critical-path-heuristic
  55              	@ -fsched-dep-count-heuristic -fsched-group-heuristic -fsched-interblock
  56              	@ -fsched-last-insn-heuristic -fsched-pressure -fsched-rank-heuristic
  57              	@ -fsched-spec -fsched-spec-insn-heuristic -fsched-stalled-insns-dep
ARM GAS  /tmp/cct8K0iD.s 			page 2


  58              	@ -fschedule-insns2 -fsection-anchors -fsemantic-interposition
  59              	@ -fshow-column -fshrink-wrap -fsigned-zeros -fsplit-ivs-in-unroller
  60              	@ -fsplit-wide-types -fssa-phiopt -fstdarg-opt -fstrict-aliasing
  61              	@ -fstrict-overflow -fstrict-volatile-bitfields -fsync-libcalls
  62              	@ -fthread-jumps -ftoplevel-reorder -ftrapping-math -ftree-bit-ccp
  63              	@ -ftree-builtin-call-dce -ftree-ccp -ftree-ch -ftree-coalesce-vars
  64              	@ -ftree-copy-prop -ftree-copyrename -ftree-cselim -ftree-dce
  65              	@ -ftree-dominator-opts -ftree-dse -ftree-forwprop -ftree-fre
  66              	@ -ftree-loop-if-convert -ftree-loop-im -ftree-loop-ivcanon
  67              	@ -ftree-loop-optimize -ftree-parallelize-loops= -ftree-phiprop -ftree-pre
  68              	@ -ftree-pta -ftree-reassoc -ftree-scev-cprop -ftree-sink -ftree-slsr
  69              	@ -ftree-sra -ftree-switch-conversion -ftree-tail-merge -ftree-ter
  70              	@ -ftree-vrp -funit-at-a-time -fvar-tracking -fvar-tracking-assignments
  71              	@ -fverbose-asm -fzero-initialized-in-bss -mlittle-endian
  72              	@ -mpic-data-is-text-relative -msched-prolog -mthumb
  73              	@ -mvectorize-with-neon-quad
  74              	
  75              		.text
  76              	.Ltext0:
  77              		.cfi_sections	.debug_frame
  78              		.align	1
  79              		.global	SystemInit
  80              		.code	16
  81              		.thumb_func
  82              		.type	SystemInit, %function
  83              	SystemInit:
  84              	.LFB34:
  85              		.file 1 "src/system_stm32f0xx.c"
   1:src/system_stm32f0xx.c **** /**
   2:src/system_stm32f0xx.c ****   ******************************************************************************
   3:src/system_stm32f0xx.c ****   * @file    system_stm32f0xx.c
   4:src/system_stm32f0xx.c ****   * @author  MCD Application Team
   5:src/system_stm32f0xx.c ****   * @version V1.6.0
   6:src/system_stm32f0xx.c ****   * @date    27-May-2016
   7:src/system_stm32f0xx.c ****   * @brief   CMSIS Cortex-M0 Device Peripheral Access Layer System Source File.
   8:src/system_stm32f0xx.c ****   *
   9:src/system_stm32f0xx.c ****   * 1. This file provides two functions and one global variable to be called from
  10:src/system_stm32f0xx.c ****   *    user application:
  11:src/system_stm32f0xx.c ****   *      - SystemInit(): This function is called at startup just after reset and 
  12:src/system_stm32f0xx.c ****   *                      before branch to main program. This call is made inside
  13:src/system_stm32f0xx.c ****   *                      the "startup_stm32f0xx.s" file.
  14:src/system_stm32f0xx.c ****   *
  15:src/system_stm32f0xx.c ****   *      - SystemCoreClock variable: Contains the core clock (HCLK), it can be used
  16:src/system_stm32f0xx.c ****   *                                  by the user application to setup the SysTick
  17:src/system_stm32f0xx.c ****   *                                  timer or configure other parameters.
  18:src/system_stm32f0xx.c ****   *
  19:src/system_stm32f0xx.c ****   *      - SystemCoreClockUpdate(): Updates the variable SystemCoreClock and must
  20:src/system_stm32f0xx.c ****   *                                 be called whenever the core clock is changed
  21:src/system_stm32f0xx.c ****   *                                 during program execution.
  22:src/system_stm32f0xx.c ****   *
  23:src/system_stm32f0xx.c ****   * 2. After each device reset the HSI (8 MHz) is used as system clock source.
  24:src/system_stm32f0xx.c ****   *    Then SystemInit() function is called, in "startup_stm32f0xx.s" file, to
  25:src/system_stm32f0xx.c ****   *    configure the system clock before to branch to main program.
  26:src/system_stm32f0xx.c ****   *
  27:src/system_stm32f0xx.c ****   * 3. This file configures the system clock as follows:
  28:src/system_stm32f0xx.c ****   *=============================================================================
  29:src/system_stm32f0xx.c ****   *                         Supported STM32F0xx device
ARM GAS  /tmp/cct8K0iD.s 			page 3


  30:src/system_stm32f0xx.c ****   *-----------------------------------------------------------------------------
  31:src/system_stm32f0xx.c ****   *        System Clock source                    | HSI
  32:src/system_stm32f0xx.c ****   *-----------------------------------------------------------------------------
  33:src/system_stm32f0xx.c ****   *        SYSCLK(Hz)                             | 8000000
  34:src/system_stm32f0xx.c ****   *-----------------------------------------------------------------------------
  35:src/system_stm32f0xx.c ****   *        HCLK(Hz)                               | 8000000
  36:src/system_stm32f0xx.c ****   *-----------------------------------------------------------------------------
  37:src/system_stm32f0xx.c ****   *        AHB Prescaler                          | 1
  38:src/system_stm32f0xx.c ****   *-----------------------------------------------------------------------------
  39:src/system_stm32f0xx.c ****   *        APB1 Prescaler                         | 1
  40:src/system_stm32f0xx.c ****   *-----------------------------------------------------------------------------
  41:src/system_stm32f0xx.c ****   *=============================================================================
  42:src/system_stm32f0xx.c ****   ******************************************************************************
  43:src/system_stm32f0xx.c ****   * @attention
  44:src/system_stm32f0xx.c ****   *
  45:src/system_stm32f0xx.c ****   * <h2><center>&copy; COPYRIGHT(c) 2016 STMicroelectronics</center></h2>
  46:src/system_stm32f0xx.c ****   *
  47:src/system_stm32f0xx.c ****   * Redistribution and use in source and binary forms, with or without modification,
  48:src/system_stm32f0xx.c ****   * are permitted provided that the following conditions are met:
  49:src/system_stm32f0xx.c ****   *   1. Redistributions of source code must retain the above copyright notice,
  50:src/system_stm32f0xx.c ****   *      this list of conditions and the following disclaimer.
  51:src/system_stm32f0xx.c ****   *   2. Redistributions in binary form must reproduce the above copyright notice,
  52:src/system_stm32f0xx.c ****   *      this list of conditions and the following disclaimer in the documentation
  53:src/system_stm32f0xx.c ****   *      and/or other materials provided with the distribution.
  54:src/system_stm32f0xx.c ****   *   3. Neither the name of STMicroelectronics nor the names of its contributors
  55:src/system_stm32f0xx.c ****   *      may be used to endorse or promote products derived from this software
  56:src/system_stm32f0xx.c ****   *      without specific prior written permission.
  57:src/system_stm32f0xx.c ****   *
  58:src/system_stm32f0xx.c ****   * THIS SOFTWARE IS PROVIDED BY THE COPYRIGHT HOLDERS AND CONTRIBUTORS "AS IS"
  59:src/system_stm32f0xx.c ****   * AND ANY EXPRESS OR IMPLIED WARRANTIES, INCLUDING, BUT NOT LIMITED TO, THE
  60:src/system_stm32f0xx.c ****   * IMPLIED WARRANTIES OF MERCHANTABILITY AND FITNESS FOR A PARTICULAR PURPOSE ARE
  61:src/system_stm32f0xx.c ****   * DISCLAIMED. IN NO EVENT SHALL THE COPYRIGHT HOLDER OR CONTRIBUTORS BE LIABLE
  62:src/system_stm32f0xx.c ****   * FOR ANY DIRECT, INDIRECT, INCIDENTAL, SPECIAL, EXEMPLARY, OR CONSEQUENTIAL
  63:src/system_stm32f0xx.c ****   * DAMAGES (INCLUDING, BUT NOT LIMITED TO, PROCUREMENT OF SUBSTITUTE GOODS OR
  64:src/system_stm32f0xx.c ****   * SERVICES; LOSS OF USE, DATA, OR PROFITS; OR BUSINESS INTERRUPTION) HOWEVER
  65:src/system_stm32f0xx.c ****   * CAUSED AND ON ANY THEORY OF LIABILITY, WHETHER IN CONTRACT, STRICT LIABILITY,
  66:src/system_stm32f0xx.c ****   * OR TORT (INCLUDING NEGLIGENCE OR OTHERWISE) ARISING IN ANY WAY OUT OF THE USE
  67:src/system_stm32f0xx.c ****   * OF THIS SOFTWARE, EVEN IF ADVISED OF THE POSSIBILITY OF SUCH DAMAGE.
  68:src/system_stm32f0xx.c ****   *
  69:src/system_stm32f0xx.c ****   ******************************************************************************
  70:src/system_stm32f0xx.c ****   */
  71:src/system_stm32f0xx.c **** 
  72:src/system_stm32f0xx.c **** /** @addtogroup CMSIS
  73:src/system_stm32f0xx.c ****   * @{
  74:src/system_stm32f0xx.c ****   */
  75:src/system_stm32f0xx.c **** 
  76:src/system_stm32f0xx.c **** /** @addtogroup stm32f0xx_system
  77:src/system_stm32f0xx.c ****   * @{
  78:src/system_stm32f0xx.c ****   */
  79:src/system_stm32f0xx.c **** 
  80:src/system_stm32f0xx.c **** /** @addtogroup STM32F0xx_System_Private_Includes
  81:src/system_stm32f0xx.c ****   * @{
  82:src/system_stm32f0xx.c ****   */
  83:src/system_stm32f0xx.c **** 
  84:src/system_stm32f0xx.c **** #include "stm32f0xx.h"
  85:src/system_stm32f0xx.c **** 
  86:src/system_stm32f0xx.c **** /**
ARM GAS  /tmp/cct8K0iD.s 			page 4


  87:src/system_stm32f0xx.c ****   * @}
  88:src/system_stm32f0xx.c ****   */
  89:src/system_stm32f0xx.c **** 
  90:src/system_stm32f0xx.c **** /** @addtogroup STM32F0xx_System_Private_TypesDefinitions
  91:src/system_stm32f0xx.c ****   * @{
  92:src/system_stm32f0xx.c ****   */
  93:src/system_stm32f0xx.c **** 
  94:src/system_stm32f0xx.c **** /**
  95:src/system_stm32f0xx.c ****   * @}
  96:src/system_stm32f0xx.c ****   */
  97:src/system_stm32f0xx.c **** 
  98:src/system_stm32f0xx.c **** /** @addtogroup STM32F0xx_System_Private_Defines
  99:src/system_stm32f0xx.c ****   * @{
 100:src/system_stm32f0xx.c ****   */
 101:src/system_stm32f0xx.c **** #if !defined  (HSE_VALUE) 
 102:src/system_stm32f0xx.c ****   #define HSE_VALUE    ((uint32_t)8000000) /*!< Default value of the External oscillator in Hz.
 103:src/system_stm32f0xx.c ****                                                 This value can be provided and adapted by the user 
 104:src/system_stm32f0xx.c **** #endif /* HSE_VALUE */
 105:src/system_stm32f0xx.c **** 
 106:src/system_stm32f0xx.c **** #if !defined  (HSI_VALUE)
 107:src/system_stm32f0xx.c ****   #define HSI_VALUE    ((uint32_t)8000000) /*!< Default value of the Internal oscillator in Hz.
 108:src/system_stm32f0xx.c ****                                                 This value can be provided and adapted by the user 
 109:src/system_stm32f0xx.c **** #endif /* HSI_VALUE */
 110:src/system_stm32f0xx.c **** 
 111:src/system_stm32f0xx.c **** #if !defined (HSI48_VALUE)
 112:src/system_stm32f0xx.c **** #define HSI48_VALUE    ((uint32_t)48000000) /*!< Default value of the HSI48 Internal oscillator in 
 113:src/system_stm32f0xx.c ****                                                  This value can be provided and adapted by the user
 114:src/system_stm32f0xx.c **** #endif /* HSI48_VALUE */
 115:src/system_stm32f0xx.c **** /**
 116:src/system_stm32f0xx.c ****   * @}
 117:src/system_stm32f0xx.c ****   */
 118:src/system_stm32f0xx.c **** 
 119:src/system_stm32f0xx.c **** /** @addtogroup STM32F0xx_System_Private_Macros
 120:src/system_stm32f0xx.c ****   * @{
 121:src/system_stm32f0xx.c ****   */
 122:src/system_stm32f0xx.c **** 
 123:src/system_stm32f0xx.c **** /**
 124:src/system_stm32f0xx.c ****   * @}
 125:src/system_stm32f0xx.c ****   */
 126:src/system_stm32f0xx.c **** 
 127:src/system_stm32f0xx.c **** /** @addtogroup STM32F0xx_System_Private_Variables
 128:src/system_stm32f0xx.c ****   * @{
 129:src/system_stm32f0xx.c ****   */
 130:src/system_stm32f0xx.c ****   /* This variable is updated in three ways:
 131:src/system_stm32f0xx.c ****       1) by calling CMSIS function SystemCoreClockUpdate()
 132:src/system_stm32f0xx.c ****       2) by calling HAL API function HAL_RCC_GetHCLKFreq()
 133:src/system_stm32f0xx.c ****       3) each time HAL_RCC_ClockConfig() is called to configure the system clock frequency
 134:src/system_stm32f0xx.c ****          Note: If you use this function to configure the system clock there is no need to
 135:src/system_stm32f0xx.c ****                call the 2 first functions listed above, since SystemCoreClock variable is 
 136:src/system_stm32f0xx.c ****                updated automatically.
 137:src/system_stm32f0xx.c ****   */
 138:src/system_stm32f0xx.c **** uint32_t SystemCoreClock = 8000000;
 139:src/system_stm32f0xx.c **** 
 140:src/system_stm32f0xx.c **** const uint8_t AHBPrescTable[16] = {0, 0, 0, 0, 0, 0, 0, 0, 1, 2, 3, 4, 6, 7, 8, 9};
 141:src/system_stm32f0xx.c **** const uint8_t APBPrescTable[8]  = {0, 0, 0, 0, 1, 2, 3, 4};
 142:src/system_stm32f0xx.c **** 
 143:src/system_stm32f0xx.c **** /**
ARM GAS  /tmp/cct8K0iD.s 			page 5


 144:src/system_stm32f0xx.c ****   * @}
 145:src/system_stm32f0xx.c ****   */
 146:src/system_stm32f0xx.c **** 
 147:src/system_stm32f0xx.c **** /** @addtogroup STM32F0xx_System_Private_FunctionPrototypes
 148:src/system_stm32f0xx.c ****   * @{
 149:src/system_stm32f0xx.c ****   */
 150:src/system_stm32f0xx.c **** 
 151:src/system_stm32f0xx.c **** /**
 152:src/system_stm32f0xx.c ****   * @}
 153:src/system_stm32f0xx.c ****   */
 154:src/system_stm32f0xx.c **** 
 155:src/system_stm32f0xx.c **** /** @addtogroup STM32F0xx_System_Private_Functions
 156:src/system_stm32f0xx.c ****   * @{
 157:src/system_stm32f0xx.c ****   */
 158:src/system_stm32f0xx.c **** 
 159:src/system_stm32f0xx.c **** /**
 160:src/system_stm32f0xx.c ****   * @brief  Setup the microcontroller system.
 161:src/system_stm32f0xx.c ****   *         Initialize the default HSI clock source, vector table location and the PLL configuratio
 162:src/system_stm32f0xx.c ****   * @param  None
 163:src/system_stm32f0xx.c ****   * @retval None
 164:src/system_stm32f0xx.c ****   */
 165:src/system_stm32f0xx.c **** void SystemInit(void)
 166:src/system_stm32f0xx.c **** {
  86              		.loc 1 166 0
  87              		.cfi_startproc
 167:src/system_stm32f0xx.c ****   /* Reset the RCC clock configuration to the default reset state ------------*/
 168:src/system_stm32f0xx.c ****   /* Set HSION bit */
 169:src/system_stm32f0xx.c ****   RCC->CR |= (uint32_t)0x00000001U;
  88              		.loc 1 169 0
  89 0000 0121     		movs	r1, #1	@ tmp127,
  90 0002 114B     		ldr	r3, .L2	@ tmp126,
 170:src/system_stm32f0xx.c **** 
 171:src/system_stm32f0xx.c **** #if defined (STM32F051x8) || defined (STM32F058x8)
 172:src/system_stm32f0xx.c ****   /* Reset SW[1:0], HPRE[3:0], PPRE[2:0], ADCPRE and MCOSEL[2:0] bits */
 173:src/system_stm32f0xx.c ****   RCC->CFGR &= (uint32_t)0xF8FFB80CU;
 174:src/system_stm32f0xx.c **** #else
 175:src/system_stm32f0xx.c ****   /* Reset SW[1:0], HPRE[3:0], PPRE[2:0], ADCPRE, MCOSEL[2:0], MCOPRE[2:0] and PLLNODIV bits */
 176:src/system_stm32f0xx.c ****   RCC->CFGR &= (uint32_t)0x08FFB80CU;
 177:src/system_stm32f0xx.c **** #endif /* STM32F051x8 or STM32F058x8 */
 178:src/system_stm32f0xx.c ****   
 179:src/system_stm32f0xx.c ****   /* Reset HSEON, CSSON and PLLON bits */
 180:src/system_stm32f0xx.c ****   RCC->CR &= (uint32_t)0xFEF6FFFFU;
 181:src/system_stm32f0xx.c **** 
 182:src/system_stm32f0xx.c ****   /* Reset HSEBYP bit */
 183:src/system_stm32f0xx.c ****   RCC->CR &= (uint32_t)0xFFFBFFFFU;
 184:src/system_stm32f0xx.c **** 
 185:src/system_stm32f0xx.c ****   /* Reset PLLSRC, PLLXTPRE and PLLMUL[3:0] bits */
 186:src/system_stm32f0xx.c ****   RCC->CFGR &= (uint32_t)0xFFC0FFFFU;
 187:src/system_stm32f0xx.c **** 
 188:src/system_stm32f0xx.c ****   /* Reset PREDIV[3:0] bits */
 189:src/system_stm32f0xx.c ****   RCC->CFGR2 &= (uint32_t)0xFFFFFFF0U;
 190:src/system_stm32f0xx.c **** 
 191:src/system_stm32f0xx.c **** #if defined (STM32F072xB) || defined (STM32F078xx)
 192:src/system_stm32f0xx.c ****   /* Reset USART2SW[1:0], USART1SW[1:0], I2C1SW, CECSW, USBSW and ADCSW bits */
 193:src/system_stm32f0xx.c ****   RCC->CFGR3 &= (uint32_t)0xFFFCFE2CU;
 194:src/system_stm32f0xx.c **** #elif defined (STM32F071xB)
 195:src/system_stm32f0xx.c ****   /* Reset USART2SW[1:0], USART1SW[1:0], I2C1SW, CECSW and ADCSW bits */
ARM GAS  /tmp/cct8K0iD.s 			page 6


 196:src/system_stm32f0xx.c ****   RCC->CFGR3 &= (uint32_t)0xFFFFCEACU;
 197:src/system_stm32f0xx.c **** #elif defined (STM32F091xC) || defined (STM32F098xx)
 198:src/system_stm32f0xx.c ****   /* Reset USART3SW[1:0], USART2SW[1:0], USART1SW[1:0], I2C1SW, CECSW and ADCSW bits */
 199:src/system_stm32f0xx.c ****   RCC->CFGR3 &= (uint32_t)0xFFF0FEACU;
 200:src/system_stm32f0xx.c **** #elif defined (STM32F030x6) || defined (STM32F030x8) || defined (STM32F031x6) || defined (STM32F038
 201:src/system_stm32f0xx.c ****   /* Reset USART1SW[1:0], I2C1SW and ADCSW bits */
 202:src/system_stm32f0xx.c ****   RCC->CFGR3 &= (uint32_t)0xFFFFFEECU;
 203:src/system_stm32f0xx.c **** #elif defined (STM32F051x8) || defined (STM32F058xx)
 204:src/system_stm32f0xx.c ****   /* Reset USART1SW[1:0], I2C1SW, CECSW and ADCSW bits */
 205:src/system_stm32f0xx.c ****   RCC->CFGR3 &= (uint32_t)0xFFFFFEACU;
 206:src/system_stm32f0xx.c **** #elif defined (STM32F042x6) || defined (STM32F048xx)
 207:src/system_stm32f0xx.c ****   /* Reset USART1SW[1:0], I2C1SW, CECSW, USBSW and ADCSW bits */
 208:src/system_stm32f0xx.c ****   RCC->CFGR3 &= (uint32_t)0xFFFFFE2CU;
 209:src/system_stm32f0xx.c **** #elif defined (STM32F070x6) || defined (STM32F070xB)
 210:src/system_stm32f0xx.c ****   /* Reset USART1SW[1:0], I2C1SW, USBSW and ADCSW bits */
 211:src/system_stm32f0xx.c ****   RCC->CFGR3 &= (uint32_t)0xFFFFFE6CU;
 212:src/system_stm32f0xx.c ****   /* Set default USB clock to PLLCLK, since there is no HSI48 */
 213:src/system_stm32f0xx.c ****   RCC->CFGR3 |= (uint32_t)0x00000080U;  
 214:src/system_stm32f0xx.c **** #else
 215:src/system_stm32f0xx.c ****  #warning "No target selected"
 216:src/system_stm32f0xx.c **** #endif
 217:src/system_stm32f0xx.c **** 
 218:src/system_stm32f0xx.c ****   /* Reset HSI14 bit */
 219:src/system_stm32f0xx.c ****   RCC->CR2 &= (uint32_t)0xFFFFFFFEU;
 220:src/system_stm32f0xx.c **** 
 221:src/system_stm32f0xx.c ****   /* Disable all interrupts */
 222:src/system_stm32f0xx.c ****   RCC->CIR = 0x00000000U;
 223:src/system_stm32f0xx.c **** 
 224:src/system_stm32f0xx.c **** }
  91              		.loc 1 224 0
  92              		@ sp needed	@
 169:src/system_stm32f0xx.c **** 
  93              		.loc 1 169 0
  94 0004 1A68     		ldr	r2, [r3]	@ D.4863, MEM[(struct RCC_TypeDef *)1073876992B].CR
  95 0006 0A43     		orrs	r2, r1	@ D.4863, tmp127
  96 0008 1A60     		str	r2, [r3]	@ D.4863, MEM[(struct RCC_TypeDef *)1073876992B].CR
 176:src/system_stm32f0xx.c **** #endif /* STM32F051x8 or STM32F058x8 */
  97              		.loc 1 176 0
  98 000a 5868     		ldr	r0, [r3, #4]	@ D.4863, MEM[(struct RCC_TypeDef *)1073876992B].CFGR
  99 000c 0F4A     		ldr	r2, .L2+4	@ tmp130,
 100 000e 0240     		ands	r2, r0	@ D.4863, D.4863
 101 0010 5A60     		str	r2, [r3, #4]	@ D.4863, MEM[(struct RCC_TypeDef *)1073876992B].CFGR
 180:src/system_stm32f0xx.c **** 
 102              		.loc 1 180 0
 103 0012 1868     		ldr	r0, [r3]	@ D.4863, MEM[(struct RCC_TypeDef *)1073876992B].CR
 104 0014 0E4A     		ldr	r2, .L2+8	@ tmp133,
 105 0016 0240     		ands	r2, r0	@ D.4863, D.4863
 106 0018 1A60     		str	r2, [r3]	@ D.4863, MEM[(struct RCC_TypeDef *)1073876992B].CR
 183:src/system_stm32f0xx.c **** 
 107              		.loc 1 183 0
 108 001a 1868     		ldr	r0, [r3]	@ D.4863, MEM[(struct RCC_TypeDef *)1073876992B].CR
 109 001c 0D4A     		ldr	r2, .L2+12	@ tmp136,
 110 001e 0240     		ands	r2, r0	@ D.4863, D.4863
 111 0020 1A60     		str	r2, [r3]	@ D.4863, MEM[(struct RCC_TypeDef *)1073876992B].CR
 186:src/system_stm32f0xx.c **** 
 112              		.loc 1 186 0
 113 0022 5868     		ldr	r0, [r3, #4]	@ D.4863, MEM[(struct RCC_TypeDef *)1073876992B].CFGR
ARM GAS  /tmp/cct8K0iD.s 			page 7


 114 0024 0C4A     		ldr	r2, .L2+16	@ tmp139,
 115 0026 0240     		ands	r2, r0	@ D.4863, D.4863
 189:src/system_stm32f0xx.c **** 
 116              		.loc 1 189 0
 117 0028 0F20     		movs	r0, #15	@ tmp142,
 186:src/system_stm32f0xx.c **** 
 118              		.loc 1 186 0
 119 002a 5A60     		str	r2, [r3, #4]	@ D.4863, MEM[(struct RCC_TypeDef *)1073876992B].CFGR
 189:src/system_stm32f0xx.c **** 
 120              		.loc 1 189 0
 121 002c DA6A     		ldr	r2, [r3, #44]	@ D.4863, MEM[(struct RCC_TypeDef *)1073876992B].CFGR2
 122 002e 8243     		bics	r2, r0	@ D.4863, tmp142
 123 0030 DA62     		str	r2, [r3, #44]	@ D.4863, MEM[(struct RCC_TypeDef *)1073876992B].CFGR2
 193:src/system_stm32f0xx.c **** #elif defined (STM32F071xB)
 124              		.loc 1 193 0
 125 0032 186B     		ldr	r0, [r3, #48]	@ D.4863, MEM[(struct RCC_TypeDef *)1073876992B].CFGR3
 126 0034 094A     		ldr	r2, .L2+20	@ tmp145,
 127 0036 0240     		ands	r2, r0	@ D.4863, D.4863
 128 0038 1A63     		str	r2, [r3, #48]	@ D.4863, MEM[(struct RCC_TypeDef *)1073876992B].CFGR3
 219:src/system_stm32f0xx.c **** 
 129              		.loc 1 219 0
 130 003a 5A6B     		ldr	r2, [r3, #52]	@ D.4863, MEM[(struct RCC_TypeDef *)1073876992B].CR2
 131 003c 8A43     		bics	r2, r1	@ D.4863, tmp127
 132 003e 5A63     		str	r2, [r3, #52]	@ D.4863, MEM[(struct RCC_TypeDef *)1073876992B].CR2
 222:src/system_stm32f0xx.c **** 
 133              		.loc 1 222 0
 134 0040 0022     		movs	r2, #0	@ tmp151,
 135 0042 9A60     		str	r2, [r3, #8]	@ tmp151, MEM[(struct RCC_TypeDef *)1073876992B].CIR
 136              		.loc 1 224 0
 137 0044 7047     		bx	lr
 138              	.L3:
 139 0046 C046     		.align	2
 140              	.L2:
 141 0048 00100240 		.word	1073876992
 142 004c 0CB8FF08 		.word	150976524
 143 0050 FFFFF6FE 		.word	-17367041
 144 0054 FFFFFBFF 		.word	-262145
 145 0058 FFFFC0FF 		.word	-4128769
 146 005c 2CFEFCFF 		.word	-197076
 147              		.cfi_endproc
 148              	.LFE34:
 149              		.size	SystemInit, .-SystemInit
 150              		.global	__aeabi_uidiv
 151              		.align	1
 152              		.global	SystemCoreClockUpdate
 153              		.code	16
 154              		.thumb_func
 155              		.type	SystemCoreClockUpdate, %function
 156              	SystemCoreClockUpdate:
 157              	.LFB35:
 225:src/system_stm32f0xx.c **** 
 226:src/system_stm32f0xx.c **** /**
 227:src/system_stm32f0xx.c ****    * @brief  Update SystemCoreClock variable according to Clock Register Values.
 228:src/system_stm32f0xx.c ****   *         The SystemCoreClock variable contains the core clock (HCLK), it can
 229:src/system_stm32f0xx.c ****   *         be used by the user application to setup the SysTick timer or configure
 230:src/system_stm32f0xx.c ****   *         other parameters.
 231:src/system_stm32f0xx.c ****   *
ARM GAS  /tmp/cct8K0iD.s 			page 8


 232:src/system_stm32f0xx.c ****   * @note   Each time the core clock (HCLK) changes, this function must be called
 233:src/system_stm32f0xx.c ****   *         to update SystemCoreClock variable value. Otherwise, any configuration
 234:src/system_stm32f0xx.c ****   *         based on this variable will be incorrect.
 235:src/system_stm32f0xx.c ****   *
 236:src/system_stm32f0xx.c ****   * @note   - The system frequency computed by this function is not the real
 237:src/system_stm32f0xx.c ****   *           frequency in the chip. It is calculated based on the predefined
 238:src/system_stm32f0xx.c ****   *           constant and the selected clock source:
 239:src/system_stm32f0xx.c ****   *
 240:src/system_stm32f0xx.c ****   *           - If SYSCLK source is HSI, SystemCoreClock will contain the HSI_VALUE(*)
 241:src/system_stm32f0xx.c ****   *
 242:src/system_stm32f0xx.c ****   *           - If SYSCLK source is HSE, SystemCoreClock will contain the HSE_VALUE(**)
 243:src/system_stm32f0xx.c ****   *
 244:src/system_stm32f0xx.c ****   *           - If SYSCLK source is PLL, SystemCoreClock will contain the HSE_VALUE(**)
 245:src/system_stm32f0xx.c ****   *             or HSI_VALUE(*) multiplied/divided by the PLL factors.
 246:src/system_stm32f0xx.c ****   *
 247:src/system_stm32f0xx.c ****   *         (*) HSI_VALUE is a constant defined in stm32f0xx_hal.h file (default value
 248:src/system_stm32f0xx.c ****   *             8 MHz) but the real value may vary depending on the variations
 249:src/system_stm32f0xx.c ****   *             in voltage and temperature.
 250:src/system_stm32f0xx.c ****   *
 251:src/system_stm32f0xx.c ****   *         (**) HSE_VALUE is a constant defined in stm32f0xx_hal.h file (default value
 252:src/system_stm32f0xx.c ****   *              8 MHz), user has to ensure that HSE_VALUE is same as the real
 253:src/system_stm32f0xx.c ****   *              frequency of the crystal used. Otherwise, this function may
 254:src/system_stm32f0xx.c ****   *              have wrong result.
 255:src/system_stm32f0xx.c ****   *
 256:src/system_stm32f0xx.c ****   *         - The result of this function could be not correct when using fractional
 257:src/system_stm32f0xx.c ****   *           value for HSE crystal.
 258:src/system_stm32f0xx.c ****   *
 259:src/system_stm32f0xx.c ****   * @param  None
 260:src/system_stm32f0xx.c ****   * @retval None
 261:src/system_stm32f0xx.c ****   */
 262:src/system_stm32f0xx.c **** void SystemCoreClockUpdate (void)
 263:src/system_stm32f0xx.c **** {
 158              		.loc 1 263 0
 159              		.cfi_startproc
 160              	.LVL0:
 161 0060 F8B5     		push	{r3, r4, r5, r6, r7, lr}	@
 162              	.LCFI0:
 163              		.cfi_def_cfa_offset 24
 164              		.cfi_offset 3, -24
 165              		.cfi_offset 4, -20
 166              		.cfi_offset 5, -16
 167              		.cfi_offset 6, -12
 168              		.cfi_offset 7, -8
 169              		.cfi_offset 14, -4
 264:src/system_stm32f0xx.c ****   uint32_t tmp = 0, pllmull = 0, pllsource = 0, predivfactor = 0;
 265:src/system_stm32f0xx.c **** 
 266:src/system_stm32f0xx.c ****   /* Get SYSCLK source -------------------------------------------------------*/
 267:src/system_stm32f0xx.c ****   tmp = RCC->CFGR & RCC_CFGR_SWS;
 268:src/system_stm32f0xx.c **** 
 269:src/system_stm32f0xx.c ****   switch (tmp)
 170              		.loc 1 269 0
 171 0062 0C23     		movs	r3, #12	@ tmp136,
 267:src/system_stm32f0xx.c **** 
 172              		.loc 1 267 0
 173 0064 164E     		ldr	r6, .L14	@ tmp134,
 174 0066 174D     		ldr	r5, .L14+4	@ tmp182,
 175 0068 7268     		ldr	r2, [r6, #4]	@ D.4866, MEM[(struct RCC_TypeDef *)1073876992B].CFGR
ARM GAS  /tmp/cct8K0iD.s 			page 9


 176              	.LVL1:
 177              		.loc 1 269 0
 178 006a 1340     		ands	r3, r2	@ tmp, D.4866
 179              	.LVL2:
 180 006c 042B     		cmp	r3, #4	@ tmp,
 181 006e 01D0     		beq	.L6	@,
 182 0070 082B     		cmp	r3, #8	@ tmp,
 183 0072 02D0     		beq	.L7	@,
 184              	.L6:
 270:src/system_stm32f0xx.c ****   {
 271:src/system_stm32f0xx.c ****     case RCC_CFGR_SWS_HSI:  /* HSI used as system clock */
 272:src/system_stm32f0xx.c ****       SystemCoreClock = HSI_VALUE;
 273:src/system_stm32f0xx.c ****       break;
 274:src/system_stm32f0xx.c ****     case RCC_CFGR_SWS_HSE:  /* HSE used as system clock */
 275:src/system_stm32f0xx.c ****       SystemCoreClock = HSE_VALUE;
 185              		.loc 1 275 0
 186 0074 144B     		ldr	r3, .L14+8	@ tmp140,
 187              	.LVL3:
 188 0076 2B60     		str	r3, [r5]	@ tmp140, SystemCoreClock
 276:src/system_stm32f0xx.c ****       break;
 189              		.loc 1 276 0
 190 0078 18E0     		b	.L9	@
 191              	.LVL4:
 192              	.L7:
 277:src/system_stm32f0xx.c ****     case RCC_CFGR_SWS_PLL:  /* PLL used as system clock */
 278:src/system_stm32f0xx.c ****       /* Get PLL clock source and multiplication factor ----------------------*/
 279:src/system_stm32f0xx.c ****       pllmull = RCC->CFGR & RCC_CFGR_PLLMUL;
 280:src/system_stm32f0xx.c ****       pllsource = RCC->CFGR & RCC_CFGR_PLLSRC;
 281:src/system_stm32f0xx.c ****       pllmull = ( pllmull >> 18) + 2;
 282:src/system_stm32f0xx.c ****       predivfactor = (RCC->CFGR2 & RCC_CFGR2_PREDIV) + 1;
 193              		.loc 1 282 0
 194 007a 0F23     		movs	r3, #15	@ tmp148,
 195              	.LVL5:
 279:src/system_stm32f0xx.c ****       pllsource = RCC->CFGR & RCC_CFGR_PLLSRC;
 196              		.loc 1 279 0
 197 007c 7468     		ldr	r4, [r6, #4]	@ D.4866, MEM[(struct RCC_TypeDef *)1073876992B].CFGR
 198              	.LVL6:
 280:src/system_stm32f0xx.c ****       pllmull = ( pllmull >> 18) + 2;
 199              		.loc 1 280 0
 200 007e 7268     		ldr	r2, [r6, #4]	@ D.4866, MEM[(struct RCC_TypeDef *)1073876992B].CFGR
 201              	.LVL7:
 202              		.loc 1 282 0
 203 0080 F16A     		ldr	r1, [r6, #44]	@ D.4866, MEM[(struct RCC_TypeDef *)1073876992B].CFGR2
 280:src/system_stm32f0xx.c ****       pllmull = ( pllmull >> 18) + 2;
 204              		.loc 1 280 0
 205 0082 C027     		movs	r7, #192	@ tmp143,
 206              		.loc 1 282 0
 207 0084 1940     		ands	r1, r3	@ D.4866, tmp148
 283:src/system_stm32f0xx.c **** 
 284:src/system_stm32f0xx.c ****       if (pllsource == RCC_CFGR_PLLSRC_HSE_PREDIV)
 208              		.loc 1 284 0
 209 0086 8023     		movs	r3, #128	@ tmp149,
 281:src/system_stm32f0xx.c ****       predivfactor = (RCC->CFGR2 & RCC_CFGR2_PREDIV) + 1;
 210              		.loc 1 281 0
 211 0088 A402     		lsls	r4, r4, #10	@ pllmull, D.4866,
 212              	.LVL8:
 280:src/system_stm32f0xx.c ****       pllmull = ( pllmull >> 18) + 2;
ARM GAS  /tmp/cct8K0iD.s 			page 10


 213              		.loc 1 280 0
 214 008a 7F02     		lsls	r7, r7, #9	@ tmp143, tmp143,
 281:src/system_stm32f0xx.c ****       predivfactor = (RCC->CFGR2 & RCC_CFGR2_PREDIV) + 1;
 215              		.loc 1 281 0
 216 008c 240F     		lsrs	r4, r4, #28	@ D.4866, pllmull,
 280:src/system_stm32f0xx.c ****       pllmull = ( pllmull >> 18) + 2;
 217              		.loc 1 280 0
 218 008e 3A40     		ands	r2, r7	@ pllsource, tmp143
 219              	.LVL9:
 281:src/system_stm32f0xx.c ****       predivfactor = (RCC->CFGR2 & RCC_CFGR2_PREDIV) + 1;
 220              		.loc 1 281 0
 221 0090 0234     		adds	r4, r4, #2	@ pllmull,
 222              	.LVL10:
 282:src/system_stm32f0xx.c **** 
 223              		.loc 1 282 0
 224 0092 0131     		adds	r1, r1, #1	@ predivfactor,
 225              	.LVL11:
 226              		.loc 1 284 0
 227 0094 5B02     		lsls	r3, r3, #9	@ tmp149, tmp149,
 228 0096 9A42     		cmp	r2, r3	@ pllsource, tmp149
 229 0098 03D0     		beq	.L11	@,
 285:src/system_stm32f0xx.c ****       {
 286:src/system_stm32f0xx.c ****         /* HSE used as PLL clock source : SystemCoreClock = HSE/PREDIV * PLLMUL */
 287:src/system_stm32f0xx.c ****         SystemCoreClock = (HSE_VALUE/predivfactor) * pllmull;
 288:src/system_stm32f0xx.c ****       }
 289:src/system_stm32f0xx.c **** #if defined(STM32F042x6) || defined(STM32F048xx) || defined(STM32F072xB) || defined(STM32F078xx) ||
 290:src/system_stm32f0xx.c ****       else if (pllsource == RCC_CFGR_PLLSRC_HSI48_PREDIV)
 230              		.loc 1 290 0
 231 009a BA42     		cmp	r2, r7	@ pllsource, tmp143
 232 009c 01D1     		bne	.L11	@,
 291:src/system_stm32f0xx.c ****       {
 292:src/system_stm32f0xx.c ****         /* HSI48 used as PLL clock source : SystemCoreClock = HSI48/PREDIV * PLLMUL */
 293:src/system_stm32f0xx.c ****         SystemCoreClock = (HSI48_VALUE/predivfactor) * pllmull;
 233              		.loc 1 293 0
 234 009e 0B48     		ldr	r0, .L14+12	@,
 235 00a0 00E0     		b	.L12	@
 236              	.L11:
 294:src/system_stm32f0xx.c ****       }
 295:src/system_stm32f0xx.c **** #endif /* STM32F042x6 || STM32F048xx || STM32F072xB || STM32F078xx || STM32F091xC || STM32F098xx */
 296:src/system_stm32f0xx.c ****       else
 297:src/system_stm32f0xx.c ****       {
 298:src/system_stm32f0xx.c **** #if defined(STM32F042x6) || defined(STM32F048xx)  || defined(STM32F070x6) \
 299:src/system_stm32f0xx.c ****  || defined(STM32F078xx) || defined(STM32F071xB)  || defined(STM32F072xB) \
 300:src/system_stm32f0xx.c ****  || defined(STM32F070xB) || defined(STM32F091xC) || defined(STM32F098xx)  || defined(STM32F030xC)
 301:src/system_stm32f0xx.c ****         /* HSI used as PLL clock source : SystemCoreClock = HSI/PREDIV * PLLMUL */
 302:src/system_stm32f0xx.c ****         SystemCoreClock = (HSI_VALUE/predivfactor) * pllmull;
 237              		.loc 1 302 0
 238 00a2 0948     		ldr	r0, .L14+8	@,
 239              	.L12:
 240 00a4 FFF7FEFF 		bl	__aeabi_uidiv	@
 241              	.LVL12:
 242 00a8 4443     		muls	r4, r0	@ D.4866, D.4866
 243              	.LVL13:
 244 00aa 2C60     		str	r4, [r5]	@ D.4866, SystemCoreClock
 245              	.L9:
 303:src/system_stm32f0xx.c **** #else
 304:src/system_stm32f0xx.c ****         /* HSI used as PLL clock source : SystemCoreClock = HSI/2 * PLLMUL */
ARM GAS  /tmp/cct8K0iD.s 			page 11


 305:src/system_stm32f0xx.c ****         SystemCoreClock = (HSI_VALUE >> 1) * pllmull;
 306:src/system_stm32f0xx.c **** #endif /* STM32F042x6 || STM32F048xx || STM32F070x6 || 
 307:src/system_stm32f0xx.c ****           STM32F071xB || STM32F072xB || STM32F078xx || STM32F070xB ||
 308:src/system_stm32f0xx.c ****           STM32F091xC || STM32F098xx || STM32F030xC */
 309:src/system_stm32f0xx.c ****       }
 310:src/system_stm32f0xx.c ****       break;
 311:src/system_stm32f0xx.c ****     default: /* HSI used as system clock */
 312:src/system_stm32f0xx.c ****       SystemCoreClock = HSI_VALUE;
 313:src/system_stm32f0xx.c ****       break;
 314:src/system_stm32f0xx.c ****   }
 315:src/system_stm32f0xx.c ****   /* Compute HCLK clock frequency ----------------*/
 316:src/system_stm32f0xx.c ****   /* Get HCLK prescaler */
 317:src/system_stm32f0xx.c ****   tmp = AHBPrescTable[((RCC->CFGR & RCC_CFGR_HPRE) >> 4)];
 246              		.loc 1 317 0
 247 00ac 7368     		ldr	r3, [r6, #4]	@ D.4866, MEM[(struct RCC_TypeDef *)1073876992B].CFGR
 248              	.LVL14:
 318:src/system_stm32f0xx.c ****   /* HCLK clock frequency */
 319:src/system_stm32f0xx.c ****   SystemCoreClock >>= tmp;
 249              		.loc 1 319 0
 250 00ae 084A     		ldr	r2, .L14+16	@ tmp174,
 317:src/system_stm32f0xx.c ****   /* HCLK clock frequency */
 251              		.loc 1 317 0
 252 00b0 1B06     		lsls	r3, r3, #24	@ D.4866, D.4866,
 253              	.LVL15:
 254 00b2 1B0F     		lsrs	r3, r3, #28	@ D.4866, D.4866,
 255              		.loc 1 319 0
 256 00b4 D35C     		ldrb	r3, [r2, r3]	@ tmp, AHBPrescTable
 257 00b6 2A68     		ldr	r2, [r5]	@ D.4866, SystemCoreClock
 320:src/system_stm32f0xx.c **** }
 258              		.loc 1 320 0
 259              		@ sp needed	@
 319:src/system_stm32f0xx.c **** }
 260              		.loc 1 319 0
 261 00b8 DA40     		lsrs	r2, r2, r3	@ D.4866, D.4866, tmp
 262 00ba 2A60     		str	r2, [r5]	@ D.4866, SystemCoreClock
 263              		.loc 1 320 0
 264 00bc F8BD     		pop	{r3, r4, r5, r6, r7, pc}
 265              	.L15:
 266 00be C046     		.align	2
 267              	.L14:
 268 00c0 00100240 		.word	1073876992
 269 00c4 00000000 		.word	.LANCHOR0
 270 00c8 00127A00 		.word	8000000
 271 00cc 006CDC02 		.word	48000000
 272 00d0 00000000 		.word	.LANCHOR1
 273              		.cfi_endproc
 274              	.LFE35:
 275              		.size	SystemCoreClockUpdate, .-SystemCoreClockUpdate
 276              		.global	APBPrescTable
 277              		.global	AHBPrescTable
 278              		.global	SystemCoreClock
 279              		.section	.rodata
 280              		.set	.LANCHOR1,. + 0
 281              		.type	AHBPrescTable, %object
 282              		.size	AHBPrescTable, 16
 283              	AHBPrescTable:
 284 0000 00       		.byte	0
ARM GAS  /tmp/cct8K0iD.s 			page 12


 285 0001 00       		.byte	0
 286 0002 00       		.byte	0
 287 0003 00       		.byte	0
 288 0004 00       		.byte	0
 289 0005 00       		.byte	0
 290 0006 00       		.byte	0
 291 0007 00       		.byte	0
 292 0008 01       		.byte	1
 293 0009 02       		.byte	2
 294 000a 03       		.byte	3
 295 000b 04       		.byte	4
 296 000c 06       		.byte	6
 297 000d 07       		.byte	7
 298 000e 08       		.byte	8
 299 000f 09       		.byte	9
 300              		.type	APBPrescTable, %object
 301              		.size	APBPrescTable, 8
 302              	APBPrescTable:
 303 0010 00       		.byte	0
 304 0011 00       		.byte	0
 305 0012 00       		.byte	0
 306 0013 00       		.byte	0
 307 0014 01       		.byte	1
 308 0015 02       		.byte	2
 309 0016 03       		.byte	3
 310 0017 04       		.byte	4
 311              		.data
 312              		.align	2
 313              		.set	.LANCHOR0,. + 0
 314              		.type	SystemCoreClock, %object
 315              		.size	SystemCoreClock, 4
 316              	SystemCoreClock:
 317 0000 00127A00 		.word	8000000
 318              		.text
 319              	.Letext0:
 320              		.file 2 "/usr/arm-none-eabi/include/machine/_default_types.h"
 321              		.file 3 "/usr/arm-none-eabi/include/stdint.h"
 322              		.file 4 "../../STM32Cube_FW_F0_V1.6.0/Drivers/CMSIS/Device/ST/STM32F0xx/Include/stm32f072xb.h"